target datalayout = "e-m:e-p270:32:32-p271:32:32-p272:64:64-i64:64-i128:128-f80:128-n8:16:32:64-S128"
target triple = "x86_64-pc-linux-gnu"

%struct.sigaction = type { %union.anon, %struct.__sigset_t, i32, ptr }
%union.anon = type { ptr }
%struct.__sigset_t = type { [16 x i64] }

@globalL = internal global ptr null, align 8

; Function Attrs: nounwind uwtable
define internal void @setsignal(i32 noundef %0, ptr noundef %1) #0 {
  %3 = alloca i32, align 4
  %4 = alloca ptr, align 8
  %5 = alloca %struct.sigaction, align 8
  store i32 %0, ptr %3, align 4, !tbaa !4
  store ptr %1, ptr %4, align 8, !tbaa !20
  call void @llvm.lifetime.start.p0(i64 152, ptr %5) #5
  %6 = load ptr, ptr %4, align 8, !tbaa !20
  %7 = getelementptr inbounds nuw %struct.sigaction, ptr %5, i32 0, i32 0
  store ptr %6, ptr %7, align 8, !tbaa !19
  %8 = getelementptr inbounds nuw %struct.sigaction, ptr %5, i32 0, i32 2
  store i32 0, ptr %8, align 8, !tbaa !21
  %9 = getelementptr inbounds nuw %struct.sigaction, ptr %5, i32 0, i32 1
  %10 = call i32 @sigemptyset(ptr noundef %9) #5
  %11 = load i32, ptr %3, align 4, !tbaa !4
  %12 = call i32 @sigaction(i32 noundef %11, ptr noundef %5, ptr noundef null) #5
  call void @llvm.lifetime.end.p0(i64 152, ptr %5) #5
  ret void
}

; Function Attrs: nounwind uwtable
define internal i32 @docall(ptr noundef %0, i32 noundef %1, i32 noundef %2) #0 {
  %4 = alloca ptr, align 8
  %5 = alloca i32, align 4
  %6 = alloca i32, align 4
  %7 = alloca i32, align 4
  %8 = alloca i32, align 4
  store ptr %0, ptr %4, align 8, !tbaa !11
  store i32 %1, ptr %5, align 4, !tbaa !4
  store i32 %2, ptr %6, align 4, !tbaa !4
  call void @llvm.lifetime.start.p0(i64 4, ptr %7) #5
  call void @llvm.lifetime.start.p0(i64 4, ptr %8) #5
  %9 = load ptr, ptr %4, align 8, !tbaa !11
  %10 = call i32 @lua_gettop(ptr noundef %9)
  %11 = load i32, ptr %5, align 4, !tbaa !4
  %12 = sub nsw i32 %10, %11
  store i32 %12, ptr %8, align 4, !tbaa !4
  %13 = load ptr, ptr %4, align 8, !tbaa !11
  call void @lua_pushcclosure(ptr noundef %13, ptr noundef @msghandler, i32 noundef 0)
  %14 = load ptr, ptr %4, align 8, !tbaa !11
  %15 = load i32, ptr %8, align 4, !tbaa !4
  call void @lua_rotate(ptr noundef %14, i32 noundef %15, i32 noundef 1)
  %16 = load ptr, ptr %4, align 8, !tbaa !11
  store ptr %16, ptr @globalL, align 8, !tbaa !11
  call void @setsignal(i32 noundef 2, ptr noundef @laction)
  %17 = load ptr, ptr %4, align 8, !tbaa !11
  %18 = load i32, ptr %5, align 4, !tbaa !4
  %19 = load i32, ptr %6, align 4, !tbaa !4
  %20 = load i32, ptr %8, align 4, !tbaa !4
  %21 = call i32 @lua_pcallk(ptr noundef %17, i32 noundef %18, i32 noundef %19, i32 noundef %20, i64 noundef 0, ptr noundef null)
  store i32 %21, ptr %7, align 4, !tbaa !4
  call void @setsignal(i32 noundef 2, ptr noundef null)
  %22 = load ptr, ptr %4, align 8, !tbaa !11
  %23 = load i32, ptr %8, align 4, !tbaa !4
  call void @lua_rotate(ptr noundef %22, i32 noundef %23, i32 noundef -1)
  %24 = load ptr, ptr %4, align 8, !tbaa !11
  call void @lua_settop(ptr noundef %24, i32 noundef -2)
  %25 = load i32, ptr %7, align 4, !tbaa !4
  call void @llvm.lifetime.end.p0(i64 4, ptr %8) #5
  call void @llvm.lifetime.end.p0(i64 4, ptr %7) #5
  ret i32 %25
}