; Function Attrs: nounwind uwtable
define internal fastcc i32 @docall(ptr noundef %0, i32 noundef %1, i32 noundef range(i32 -1, 2) %2) unnamed_addr #0 {
  %4 = alloca %struct.sigaction, align 8
  %5 = alloca %struct.sigaction, align 8
  %6 = tail call i32 @lua_gettop(ptr noundef %0) #10
  %7 = sub nsw i32 %6, %1
  tail call void @lua_pushcclosure(ptr noundef %0, ptr noundef nonnull @msghandler, i32 noundef 0) #10
  tail call void @lua_rotate(ptr noundef %0, i32 noundef %7, i32 noundef 1) #10
  store ptr %0, ptr @globalL, align 8, !tbaa !15
  call void @llvm.lifetime.start.p0(i64 152, ptr nonnull %5) #10
  store ptr @laction, ptr %5, align 8, !tbaa !11
  %8 = getelementptr inbounds nuw i8, ptr %5, i64 136
  store i32 0, ptr %8, align 8, !tbaa !17
  %9 = getelementptr inbounds nuw i8, ptr %5, i64 8
  %10 = call i32 @sigemptyset(ptr noundef nonnull %9) #10
  %11 = call i32 @sigaction(i32 noundef 2, ptr noundef nonnull %5, ptr noundef null) #10
  call void @llvm.lifetime.end.p0(i64 152, ptr nonnull %5) #10
  %12 = call i32 @lua_pcallk(ptr noundef %0, i32 noundef %1, i32 noundef %2, i32 noundef %7, i64 noundef 0, ptr noundef null) #10
  call void @llvm.lifetime.start.p0(i64 152, ptr nonnull %4) #10
  store ptr null, ptr %4, align 8, !tbaa !11
  %13 = getelementptr inbounds nuw i8, ptr %4, i64 136
  store i32 0, ptr %13, align 8, !tbaa !17
  %14 = getelementptr inbounds nuw i8, ptr %4, i64 8
  %15 = call i32 @sigemptyset(ptr noundef nonnull %14) #10
  %16 = call i32 @sigaction(i32 noundef 2, ptr noundef nonnull %4, ptr noundef null) #10
  call void @llvm.lifetime.end.p0(i64 152, ptr nonnull %4) #10
  call void @lua_rotate(ptr noundef %0, i32 noundef %7, i32 noundef -1) #10
  call void @lua_settop(ptr noundef %0, i32 noundef -2) #10
  ret i32 %12
}